; Function Attrs: nounwind uwtable
define internal noundef i32 @pmix41_bfrops_base_pack_general_int(ptr readnone captures(none) %0, ptr noundef %1, ptr noundef %2, i32 noundef %3, i16 noundef zeroext %4) #0 {
  %6 = alloca i64, align 8
  %7 = alloca i64, align 8
  call void @llvm.lifetime.start.p0(i64 8, ptr nonnull %6) #14
  call void @llvm.lifetime.start.p0(i64 8, ptr nonnull %7) #14
  %8 = load i32, ptr getelementptr inbounds nuw (i8, ptr @pmix_bfrops_base_framework, i64 76), align 4, !tbaa !63
  %or.cond = icmp ult i32 %8, 64
  br i1 %or.cond, label %9, label %15

9:                                                ; preds = %5
  %10 = zext nneg i32 %8 to i64
  %11 = getelementptr inbounds nuw [0 x %struct.pmix_output_desc_t], ptr @pmix_output_info, i64 0, i64 %10, i32 2
  %12 = load i32, ptr %11, align 4, !tbaa !69
  %13 = icmp sgt i32 %12, 19
  br i1 %13, label %14, label %15

14:                                               ; preds = %9
  tail call void (i32, ptr, ...) @pmix_output(i32 noundef %8, ptr noundef nonnull @.str.70, i32 noundef %3) #14
  br label %15

15:                                               ; preds = %5, %9, %14
  %switch.tableidx = add i16 %4, -4
  %16 = icmp ult i16 %switch.tableidx, 12
  br i1 %16, label %switch.hole_check, label %17

17:                                               ; preds = %switch.hole_check, %15
  %18 = tail call ptr @PMIx_Error_string(i32 noundef -27) #14
  tail call void (i32, ptr, ...) @pmix_output(i32 noundef 0, ptr noundef nonnull @.str.68, ptr noundef %18, ptr noundef nonnull @.str.69, i32 noundef 425) #14
  br label %.loopexit

switch.hole_check:                                ; preds = %15
  %switch.shifted = lshr i16 3829, %switch.tableidx
  %switch.lobit = trunc i16 %switch.shifted to i1
  br i1 %switch.lobit, label %switch.lookup, label %17

switch.lookup:                                    ; preds = %switch.hole_check
  %19 = zext nneg i16 %switch.tableidx to i64
  %switch.gep = getelementptr inbounds nuw [12 x i64], ptr @switch.table.pmix41_bfrops_base_unpack_general_int, i64 0, i64 %19
  %switch.load = load i64, ptr %switch.gep, align 8
  %20 = load ptr, ptr getelementptr inbounds nuw (i8, ptr @pmix_psquash, i64 32), align 8, !tbaa !71
  %21 = call i32 %20(i16 noundef zeroext %4, ptr noundef nonnull %6) #14
  switch i32 %21, label %22 [
    i32 0, label %24
    i32 -2, label %.loopexit
  ]

22:                                               ; preds = %switch.lookup
  %23 = call ptr @PMIx_Error_string(i32 noundef %21) #14
  call void (i32, ptr, ...) @pmix_output(i32 noundef 0, ptr noundef nonnull @.str.68, ptr noundef %23, ptr noundef nonnull @.str.69, i32 noundef 431) #14
  br label %.loopexit

24:                                               ; preds = %switch.lookup
  %25 = sext i32 %3 to i64
  %26 = load i64, ptr %6, align 8, !tbaa !49
  %27 = mul i64 %26, %25
  %28 = call ptr @pmix_bfrop_buffer_extend(ptr noundef %1, i64 noundef %27) #14
  %29 = icmp eq ptr %28, null
  br i1 %29, label %33, label %.preheader

.preheader:                                       ; preds = %24
  %30 = icmp sgt i32 %3, 0
  br i1 %30, label %.lr.ph, label %.loopexit

.lr.ph:                                           ; preds = %.preheader
  %31 = getelementptr inbounds nuw i8, ptr %1, i64 136
  %32 = getelementptr inbounds nuw i8, ptr %1, i64 160
  %wide.trip.count = zext nneg i32 %3 to i64
  br label %35

33:                                               ; preds = %24
  %34 = call ptr @PMIx_Error_string(i32 noundef -29) #14
  call void (i32, ptr, ...) @pmix_output(i32 noundef 0, ptr noundef nonnull @.str.68, ptr noundef %34, ptr noundef nonnull @.str.69, i32 noundef 438) #14
  br label %.loopexit

35:                                               ; preds = %.lr.ph, %42
  %indvars.iv = phi i64 [ 0, %.lr.ph ], [ %indvars.iv.next, %42 ]
  %.03249 = phi ptr [ %28, %.lr.ph ], [ %44, %42 ]
  %36 = load ptr, ptr getelementptr inbounds nuw (i8, ptr @pmix_psquash, i64 40), align 8, !tbaa !72
  %37 = mul nuw nsw i64 %switch.load, %indvars.iv
  %38 = getelementptr inbounds nuw i8, ptr %2, i64 %37
  %39 = call i32 %36(i16 noundef zeroext %4, ptr noundef %38, ptr noundef %.03249, ptr noundef nonnull %7) #14
  switch i32 %39, label %40 [
    i32 0, label %42
    i32 -2, label %.loopexit
  ]

40:                                               ; preds = %35
  %41 = call ptr @PMIx_Error_string(i32 noundef %39) #14
  call void (i32, ptr, ...) @pmix_output(i32 noundef 0, ptr noundef nonnull @.str.68, ptr noundef %41, ptr noundef nonnull @.str.69, i32 noundef 445) #14
  br label %.loopexit

42:                                               ; preds = %35
  %43 = load i64, ptr %7, align 8, !tbaa !49
  %44 = getelementptr inbounds nuw i8, ptr %.03249, i64 %43
  %45 = load ptr, ptr %31, align 8, !tbaa !73
  %46 = getelementptr inbounds nuw i8, ptr %45, i64 %43
  store ptr %46, ptr %31, align 8, !tbaa !73
  %47 = load i64, ptr %32, align 8, !tbaa !75
  %48 = add i64 %47, %43
  store i64 %48, ptr %32, align 8, !tbaa !75
  %indvars.iv.next = add nuw nsw i64 %indvars.iv, 1
  %exitcond.not = icmp eq i64 %indvars.iv.next, %wide.trip.count
  br i1 %exitcond.not, label %.loopexit, label %35, !llvm.loop !76

.loopexit:                                        ; preds = %35, %42, %.preheader, %40, %22, %switch.lookup, %33, %17
  %.035 = phi i32 [ -27, %17 ], [ -29, %33 ], [ %21, %switch.lookup ], [ %21, %22 ], [ %39, %40 ], [ 0, %.preheader ], [ %39, %42 ], [ %39, %35 ]
  call void @llvm.lifetime.end.p0(i64 8, ptr nonnull %7) #14
  call void @llvm.lifetime.end.p0(i64 8, ptr nonnull %6) #14
  ret i32 %.035
}